(lp0
(lp1
S'1525_1.png'
p2
aS'1525_2.png'
p3
aI678
aa(lp4
S'1525_1.png'
p5
aS'1530_1.png'
p6
aI717
aa(lp7
S'1525_1.png'
p8
aS'2338_1.png'
p9
aI624
aa(lp10
S'1525_1.png'
p11
aS'2488_1.png'
p12
aI712
aa(lp13
S'1525_1.png'
p14
aS'1033_1.png'
p15
aI640
aa(lp16
S'1525_1.png'
p17
aS'1870_1.png'
p18
aI650
aa(lp19
S'1525_1.png'
p20
aS'2079_2.png'
p21
aI631
aa(lp22
S'1525_1.png'
p23
aS'1828_2.png'
p24
aI3055
aa(lp25
S'1525_1.png'
p26
aS'1034_1.png'
p27
aI692
aa(lp28
S'1525_2.png'
p29
aS'1530_1.png'
p30
aI671
aa(lp31
S'1525_2.png'
p32
aS'2338_1.png'
p33
aI600
aa(lp34
S'1525_2.png'
p35
aS'2488_1.png'
p36
aI666
aa(lp37
S'1525_2.png'
p38
aS'1033_1.png'
p39
aI612
aa(lp40
S'1525_2.png'
p41
aS'1870_1.png'
p42
aI634
aa(lp43
S'1525_2.png'
p44
aS'2079_2.png'
p45
aI603
aa(lp46
S'1525_2.png'
p47
aS'1828_2.png'
p48
aI3059
aa(lp49
S'1525_2.png'
p50
aS'1034_1.png'
p51
aI662
aa(lp52
S'1530_1.png'
p53
aS'2338_1.png'
p54
aI539
aa(lp55
S'1530_1.png'
p56
aS'2488_1.png'
p57
aI607
aa(lp58
g56
aS'1033_1.png'
p59
aI539
aa(lp60
S'1530_1.png'
p61
aS'1870_1.png'
p62
aI559
aa(lp63
g61
aS'2079_2.png'
p64
aI542
aa(lp65
S'1530_1.png'
p66
aS'1828_2.png'
p67
aI2992
aa(lp68
g66
aS'1034_1.png'
p69
aI595
aa(lp70
S'2338_1.png'
p71
aS'2488_1.png'
p72
aI522
aa(lp73
g71
aS'1033_1.png'
p74
aI458
aa(lp75
S'2338_1.png'
p76
aS'1870_1.png'
p77
aI480
aa(lp78
g76
aS'2079_2.png'
p79
aI31
aa(lp80
S'2338_1.png'
p81
aS'1828_2.png'
p82
aI2971
aa(lp83
g81
aS'1034_1.png'
p84
aI514
aa(lp85
S'2488_1.png'
p86
aS'1033_1.png'
p87
aI526
aa(lp88
g86
aS'1870_1.png'
p89
aI550
aa(lp90
S'2488_1.png'
p91
aS'2079_2.png'
p92
aI527
aa(lp93
g91
aS'1828_2.png'
p94
aI2991
aa(lp95
S'2488_1.png'
p96
aS'1034_1.png'
p97
aI584
aa(lp98
S'1033_1.png'
p99
aS'1870_1.png'
p100
aI480
aa(lp101
g99
aS'2079_2.png'
p102
aI461
aa(lp103
g99
aS'1828_2.png'
p104
aI2983
aa(lp105
g99
ag97
aI224
aa(lp106
g100
ag102
aI479
aa(lp107
g100
ag104
aI2977
aa(lp108
g100
ag97
aI540
aa(lp109
g102
ag104
aI2974
aa(lp110
g102
ag97
aI519
aa(lp111
g104
ag97
aI3003
aa.