(lp0
(lp1
S'1525_1.png'
p2
aS'1525_2.png'
p3
aI24
aa(lp4
S'1525_1.png'
p5
aS'1530_1.png'
p6
aI23
aa(lp7
S'1525_1.png'
p8
aS'2338_1.png'
p9
aI30
aa(lp10
S'1525_1.png'
p11
aS'2488_1.png'
p12
aI32
aa(lp13
S'1525_1.png'
p14
aS'1033_1.png'
p15
aI28
aa(lp16
S'1525_1.png'
p17
aS'1870_1.png'
p18
aI29
aa(lp19
S'1525_1.png'
p20
aS'2079_2.png'
p21
aI25
aa(lp22
S'1525_1.png'
p23
aS'1828_2.png'
p24
aI31
aa(lp25
S'1525_1.png'
p26
aS'1034_1.png'
p27
aI32
aa(lp28
S'1525_2.png'
p29
aS'1530_1.png'
p30
aI23
aa(lp31
S'1525_2.png'
p32
aS'2338_1.png'
p33
aI28
aa(lp34
S'1525_2.png'
p35
aS'2488_1.png'
p36
aI32
aa(lp37
S'1525_2.png'
p38
aS'1033_1.png'
p39
aI32
aa(lp40
S'1525_2.png'
p41
aS'1870_1.png'
p42
aI27
aa(lp43
S'1525_2.png'
p44
aS'2079_2.png'
p45
aI25
aa(lp46
S'1525_2.png'
p47
aS'1828_2.png'
p48
aI29
aa(lp49
S'1525_2.png'
p50
aS'1034_1.png'
p51
aI32
aa(lp52
S'1530_1.png'
p53
aS'2338_1.png'
p54
aI27
aa(lp55
S'1530_1.png'
p56
aS'2488_1.png'
p57
aI25
aa(lp58
g56
aS'1033_1.png'
p59
aI31
aa(lp60
S'1530_1.png'
p61
aS'1870_1.png'
p62
aI28
aa(lp63
g61
aS'2079_2.png'
p64
aI28
aa(lp65
S'1530_1.png'
p66
aS'1828_2.png'
p67
aI28
aa(lp68
g66
aS'1034_1.png'
p69
aI27
aa(lp70
S'2338_1.png'
p71
aS'2488_1.png'
p72
aI28
aa(lp73
g71
aS'1033_1.png'
p74
aI24
aa(lp75
S'2338_1.png'
p76
aS'1870_1.png'
p77
aI25
aa(lp78
g76
aS'2079_2.png'
p79
aI17
aa(lp80
S'2338_1.png'
p81
aS'1828_2.png'
p82
aI29
aa(lp83
g81
aS'1034_1.png'
p84
aI30
aa(lp85
S'2488_1.png'
p86
aS'1033_1.png'
p87
aI30
aa(lp88
g86
aS'1870_1.png'
p89
aI29
aa(lp90
S'2488_1.png'
p91
aS'2079_2.png'
p92
aI23
aa(lp93
g91
aS'1828_2.png'
p94
aI31
aa(lp95
g91
aS'1034_1.png'
p96
aI30
aa(lp97
S'1033_1.png'
p98
aS'1870_1.png'
p99
aI17
aa(lp100
g98
ag92
aI29
aa(lp101
g98
ag94
aI31
aa(lp102
g98
ag96
aI20
aa(lp103
g99
ag92
aI28
aa(lp104
g99
ag94
aI28
aa(lp105
g99
ag96
aI29
aa(lp106
g92
ag94
aI30
aa(lp107
g92
ag96
aI29
aa(lp108
g94
ag96
aI31
aa.